target datalayout = "e-m:e-p270:32:32-p271:32:32-p272:64:64-i64:64-i128:128-f80:128-n8:16:32:64-S128"
target triple = "x86_64-pc-linux-gnu"

@.str.32 = private unnamed_addr constant [15 x i8] c"_typevar_subst\00", align 1

; Function Attrs: nounwind uwtable
define internal ptr @typevar_typing_subst(ptr noundef %0, ptr noundef %1) #0 {
  %3 = alloca ptr, align 8
  %4 = alloca ptr, align 8
  %5 = alloca [2 x ptr], align 16
  %6 = alloca ptr, align 8
  store ptr %0, ptr %3, align 8, !tbaa !30
  store ptr %1, ptr %4, align 8, !tbaa !4
  call void @llvm.lifetime.start.p0(i64 16, ptr %5) #6
  %7 = load ptr, ptr %3, align 8, !tbaa !30
  store ptr %7, ptr %5, align 8, !tbaa !4
  %8 = getelementptr inbounds ptr, ptr %5, i64 1
  %9 = load ptr, ptr %4, align 8, !tbaa !4
  store ptr %9, ptr %8, align 8, !tbaa !4
  call void @llvm.lifetime.start.p0(i64 8, ptr %6) #6
  %10 = getelementptr inbounds [2 x ptr], ptr %5, i64 0, i64 0
  %11 = call ptr @call_typing_func_object(ptr noundef @.str.32, ptr noundef %10, i64 noundef 2)
  store ptr %11, ptr %6, align 8, !tbaa !4
  %12 = load ptr, ptr %6, align 8, !tbaa !4
  call void @llvm.lifetime.end.p0(i64 8, ptr %6) #6
  call void @llvm.lifetime.end.p0(i64 16, ptr %5) #6
  ret ptr %12
}